(dp0
S'P_J422'
p1
(S'5'
p2
S'7'
p3
tp4
sS'P_J306'
p5
(g2
g3
tp6
sS'P_J280'
p7
(g2
g3
tp8
sS'F_PU11'
p9
(S'0'
p10
S'1'
p11
tp12
sS'F_PU10'
p13
(S'2'
p14
S'9'
p15
tp16
sS'P_J289'
p17
(g2
S'8'
p18
tp19
sS'L_T2'
p20
(S'4'
p21
g15
tp22
sS'L_T1'
p23
(g2
S'6'
p24
tp25
sS'L_T7'
p26
(g21
g3
tp27
sS'L_T6'
p28
(g21
g15
tp29
sS'L_T5'
p30
(g2
g15
tp31
sS'L_T4'
p32
(S'3'
p33
g3
tp34
sS'F_PU4'
p35
(g21
g15
tp36
sS'F_PU7'
p37
(g21
g2
tp38
sS'F_PU6'
p39
(g11
g14
tp40
sS'F_PU1'
p41
(g2
g24
tp42
sS'F_PU2'
p43
(g21
g24
tp44
sS'F_PU8'
p45
(g2
g2
tp46
sS'P_J14'
p47
(g2
g3
tp48
sS'P_J300'
p49
(g2
g18
tp50
sS'P_J302'
p51
(g21
g15
tp52
sS'P_J269'
p53
(g2
g21
tp54
sS'P_J307'
p55
(g21
g15
tp56
sS'P_J415'
p57
(g14
g18
tp58
sS'L_T3'
p59
(g21
g15
tp60
sS'F_V2'
p61
(g2
g15
tp62
sS'P_J256'
p63
(g2
g18
tp64
sS'P_J317'
p65
(g14
g15
tp66
s.